; Function Attrs: nounwind uwtable
define dso_local noundef ptr @str_vprintf(ptr nocapture noundef readonly %0, ptr noundef %1) local_unnamed_addr #7 {
  %3 = alloca [1 x %struct.__va_list_tag], align 16
  call void @llvm.va_copy.p0(ptr nonnull %3, ptr %1)
  %4 = call i32 @vsnprintf(ptr noundef null, i64 noundef 0, ptr noundef %0, ptr noundef nonnull %3) #21
  call void @llvm.va_end.p0(ptr nonnull %3)
  %5 = icmp slt i32 %4, 1
  br i1 %5, label %12, label %6

6:                                                ; preds = %2
  %7 = add nuw i32 %4, 1
  %8 = zext i32 %7 to i64
  %9 = call ptr @calloc_string(i64 noundef %8) #21
  %10 = sext i32 %7 to i64
  %11 = call i32 @vsnprintf(ptr noundef %9, i64 noundef %10, ptr noundef %0, ptr noundef %1) #21
  br label %12

12:                                               ; preds = %2, %6
  %.0 = phi ptr [ %9, %6 ], [ @.str, %2 ]
  ret ptr %.0
}